target datalayout = "e-m:e-p270:32:32-p271:32:32-p272:64:64-i64:64-i128:128-f80:128-n8:16:32:64-S128"
target triple = "x86_64-pc-linux-gnu"

%struct.evp_method_data_st = type { ptr, i32, i32, ptr, ptr, ptr, i8, ptr, ptr, ptr }

; Function Attrs: nounwind uwtable
define internal ptr @get_evp_method_store(ptr noundef %0) #0 {
  %2 = alloca ptr, align 8
  store ptr %0, ptr %2, align 8, !tbaa !3
  %3 = load ptr, ptr %2, align 8, !tbaa !3
  %4 = call ptr @ossl_lib_ctx_get_data(ptr noundef %3, i32 noundef 0)
  ret ptr %4
}

; Function Attrs: nounwind uwtable
define internal i32 @evp_method_id(i32 noundef %0, i32 noundef %1) #0 {
  %3 = alloca i32, align 4
  %4 = alloca i32, align 4
  %5 = alloca i32, align 4
  store i32 %0, ptr %4, align 4, !tbaa !8
  store i32 %1, ptr %5, align 4, !tbaa !8
  %6 = load i32, ptr %4, align 4, !tbaa !8
  %7 = icmp sgt i32 %6, 0
  br i1 %7, label %8, label %11

8:                                                ; preds = %2
  %9 = load i32, ptr %4, align 4, !tbaa !8
  %10 = icmp sle i32 %9, 8388607
  br label %11

11:                                               ; preds = %8, %2
  %12 = phi i1 [ false, %2 ], [ %10, %8 ]
  %13 = zext i1 %12 to i32
  %14 = icmp ne i32 %13, 0
  %15 = xor i1 %14, true
  %16 = xor i1 %15, true
  %17 = zext i1 %16 to i32
  %18 = sext i32 %17 to i64
  %19 = call i64 @llvm.expect.i64(i64 %18, i64 1)
  %20 = icmp ne i64 %19, 0
  br i1 %20, label %21, label %37

21:                                               ; preds = %11
  %22 = load i32, ptr %5, align 4, !tbaa !8
  %23 = icmp ugt i32 %22, 0
  br i1 %23, label %24, label %27

24:                                               ; preds = %21
  %25 = load i32, ptr %5, align 4, !tbaa !8
  %26 = icmp ule i32 %25, 255
  br label %27

27:                                               ; preds = %24, %21
  %28 = phi i1 [ false, %21 ], [ %26, %24 ]
  %29 = zext i1 %28 to i32
  %30 = icmp ne i32 %29, 0
  %31 = xor i1 %30, true
  %32 = xor i1 %31, true
  %33 = zext i1 %32 to i32
  %34 = sext i32 %33 to i64
  %35 = call i64 @llvm.expect.i64(i64 %34, i64 1)
  %36 = icmp ne i64 %35, 0
  br i1 %36, label %38, label %37

37:                                               ; preds = %27, %11
  store i32 0, ptr %3, align 4
  br label %45

38:                                               ; preds = %27
  %39 = load i32, ptr %4, align 4, !tbaa !8
  %40 = shl i32 %39, 8
  %41 = and i32 %40, 2147483392
  %42 = load i32, ptr %5, align 4, !tbaa !8
  %43 = and i32 %42, 255
  %44 = or i32 %41, %43
  store i32 %44, ptr %3, align 4
  br label %45

45:                                               ; preds = %38, %37
  %46 = load i32, ptr %3, align 4
  ret i32 %46
}

; Function Attrs: nounwind uwtable
define internal ptr @get_evp_method_from_store(ptr noundef %0, ptr noundef %1, ptr noundef %2) #0 {
  %4 = alloca ptr, align 8
  %5 = alloca ptr, align 8
  %6 = alloca ptr, align 8
  %7 = alloca ptr, align 8
  %8 = alloca ptr, align 8
  %9 = alloca ptr, align 8
  %10 = alloca i32, align 4
  %11 = alloca i32, align 4
  %12 = alloca ptr, align 8
  %13 = alloca ptr, align 8
  %14 = alloca ptr, align 8
  %15 = alloca i64, align 8
  %16 = alloca i32, align 4
  store ptr %0, ptr %5, align 8, !tbaa !12
  store ptr %1, ptr %6, align 8, !tbaa !43
  store ptr %2, ptr %7, align 8, !tbaa !12
  call void @llvm.lifetime.start.p0(i64 8, ptr %8) #6
  %17 = load ptr, ptr %7, align 8, !tbaa !12
  store ptr %17, ptr %8, align 8, !tbaa !17
  call void @llvm.lifetime.start.p0(i64 8, ptr %9) #6
  store ptr null, ptr %9, align 8, !tbaa !12
  call void @llvm.lifetime.start.p0(i64 4, ptr %10) #6
  call void @llvm.lifetime.start.p0(i64 4, ptr %11) #6
  %18 = load ptr, ptr %8, align 8, !tbaa !17
  %19 = getelementptr inbounds nuw %struct.evp_method_data_st, ptr %18, i32 0, i32 2
  %20 = load i32, ptr %19, align 4, !tbaa !25
  store i32 %20, ptr %10, align 4, !tbaa !8
  %21 = icmp eq i32 %20, 0
  br i1 %21, label %22, label %61

22:                                               ; preds = %3
  %23 = load ptr, ptr %8, align 8, !tbaa !17
  %24 = getelementptr inbounds nuw %struct.evp_method_data_st, ptr %23, i32 0, i32 3
  %25 = load ptr, ptr %24, align 8, !tbaa !26
  %26 = icmp ne ptr %25, null
  br i1 %26, label %27, label %61

27:                                               ; preds = %22
  call void @llvm.lifetime.start.p0(i64 8, ptr %12) #6
  %28 = load ptr, ptr %8, align 8, !tbaa !17
  %29 = getelementptr inbounds nuw %struct.evp_method_data_st, ptr %28, i32 0, i32 0
  %30 = load ptr, ptr %29, align 8, !tbaa !13
  %31 = call ptr @ossl_namemap_stored(ptr noundef %30)
  store ptr %31, ptr %12, align 8, !tbaa !22
  call void @llvm.lifetime.start.p0(i64 8, ptr %13) #6
  %32 = load ptr, ptr %8, align 8, !tbaa !17
  %33 = getelementptr inbounds nuw %struct.evp_method_data_st, ptr %32, i32 0, i32 3
  %34 = load ptr, ptr %33, align 8, !tbaa !26
  store ptr %34, ptr %13, align 8, !tbaa !10
  call void @llvm.lifetime.start.p0(i64 8, ptr %14) #6
  %35 = load ptr, ptr %13, align 8, !tbaa !10
  %36 = call ptr @strchr(ptr noundef %35, i32 noundef 58) #7
  store ptr %36, ptr %14, align 8, !tbaa !10
  call void @llvm.lifetime.start.p0(i64 8, ptr %15) #6
  %37 = load ptr, ptr %14, align 8, !tbaa !10
  %38 = icmp eq ptr %37, null
  br i1 %38, label %39, label %42

39:                                               ; preds = %27
  %40 = load ptr, ptr %13, align 8, !tbaa !10
  %41 = call i64 @strlen(ptr noundef %40) #7
  br label %48

42:                                               ; preds = %27
  %43 = load ptr, ptr %14, align 8, !tbaa !10
  %44 = load ptr, ptr %13, align 8, !tbaa !10
  %45 = ptrtoint ptr %43 to i64
  %46 = ptrtoint ptr %44 to i64
  %47 = sub i64 %45, %46
  br label %48

48:                                               ; preds = %42, %39
  %49 = phi i64 [ %41, %39 ], [ %47, %42 ]
  store i64 %49, ptr %15, align 8, !tbaa !35
  %50 = load ptr, ptr %12, align 8, !tbaa !22
  %51 = icmp eq ptr %50, null
  br i1 %51, label %52, label %53

52:                                               ; preds = %48
  store ptr null, ptr %4, align 8
  store i32 1, ptr %16, align 4
  br label %58

53:                                               ; preds = %48
  %54 = load ptr, ptr %12, align 8, !tbaa !22
  %55 = load ptr, ptr %13, align 8, !tbaa !10
  %56 = load i64, ptr %15, align 8, !tbaa !35
  %57 = call i32 @ossl_namemap_name2num_n(ptr noundef %54, ptr noundef %55, i64 noundef %56)
  store i32 %57, ptr %10, align 4, !tbaa !8
  store i32 0, ptr %16, align 4
  br label %58

58:                                               ; preds = %53, %52
  call void @llvm.lifetime.end.p0(i64 8, ptr %15) #6
  call void @llvm.lifetime.end.p0(i64 8, ptr %14) #6
  call void @llvm.lifetime.end.p0(i64 8, ptr %13) #6
  call void @llvm.lifetime.end.p0(i64 8, ptr %12) #6
  %59 = load i32, ptr %16, align 4
  switch i32 %59, label %94 [
    i32 0, label %60
  ]

60:                                               ; preds = %58
  br label %61

61:                                               ; preds = %60, %22, %3
  %62 = load i32, ptr %10, align 4, !tbaa !8
  %63 = icmp eq i32 %62, 0
  br i1 %63, label %71, label %64

64:                                               ; preds = %61
  %65 = load i32, ptr %10, align 4, !tbaa !8
  %66 = load ptr, ptr %8, align 8, !tbaa !17
  %67 = getelementptr inbounds nuw %struct.evp_method_data_st, ptr %66, i32 0, i32 1
  %68 = load i32, ptr %67, align 8, !tbaa !24
  %69 = call i32 @evp_method_id(i32 noundef %65, i32 noundef %68)
  store i32 %69, ptr %11, align 4, !tbaa !8
  %70 = icmp eq i32 %69, 0
  br i1 %70, label %71, label %72

71:                                               ; preds = %64, %61
  store ptr null, ptr %4, align 8
  store i32 1, ptr %16, align 4
  br label %94

72:                                               ; preds = %64
  %73 = load ptr, ptr %5, align 8, !tbaa !12
  %74 = icmp eq ptr %73, null
  br i1 %74, label %75, label %82

75:                                               ; preds = %72
  %76 = load ptr, ptr %8, align 8, !tbaa !17
  %77 = getelementptr inbounds nuw %struct.evp_method_data_st, ptr %76, i32 0, i32 0
  %78 = load ptr, ptr %77, align 8, !tbaa !13
  %79 = call ptr @get_evp_method_store(ptr noundef %78)
  store ptr %79, ptr %5, align 8, !tbaa !12
  %80 = icmp eq ptr %79, null
  br i1 %80, label %81, label %82

81:                                               ; preds = %75
  store ptr null, ptr %4, align 8
  store i32 1, ptr %16, align 4
  br label %94

82:                                               ; preds = %75, %72
  %83 = load ptr, ptr %5, align 8, !tbaa !12
  %84 = load i32, ptr %11, align 4, !tbaa !8
  %85 = load ptr, ptr %8, align 8, !tbaa !17
  %86 = getelementptr inbounds nuw %struct.evp_method_data_st, ptr %85, i32 0, i32 4
  %87 = load ptr, ptr %86, align 8, !tbaa !27
  %88 = load ptr, ptr %6, align 8, !tbaa !43
  %89 = call i32 @ossl_method_store_fetch(ptr noundef %83, i32 noundef %84, ptr noundef %87, ptr noundef %88, ptr noundef %9)
  %90 = icmp ne i32 %89, 0
  br i1 %90, label %92, label %91

91:                                               ; preds = %82
  store ptr null, ptr %4, align 8
  store i32 1, ptr %16, align 4
  br label %94

92:                                               ; preds = %82
  %93 = load ptr, ptr %9, align 8, !tbaa !12
  store ptr %93, ptr %4, align 8
  store i32 1, ptr %16, align 4
  br label %94

94:                                               ; preds = %92, %91, %81, %71, %58
  call void @llvm.lifetime.end.p0(i64 4, ptr %11) #6
  call void @llvm.lifetime.end.p0(i64 4, ptr %10) #6
  call void @llvm.lifetime.end.p0(i64 8, ptr %9) #6
  call void @llvm.lifetime.end.p0(i64 8, ptr %8) #6
  %95 = load ptr, ptr %4, align 8
  ret ptr %95
}