; Function Attrs: nounwind uwtable
define internal ptr @get_evp_method_from_store(ptr noundef %0, ptr noundef %1, ptr noundef readonly captures(none) %2) #0 {
  %4 = alloca ptr, align 8
  call void @llvm.lifetime.start.p0(i64 8, ptr nonnull %4) #5
  store ptr null, ptr %4, align 8, !tbaa !15
  %5 = getelementptr inbounds nuw i8, ptr %2, i64 12
  %6 = load i32, ptr %5, align 4, !tbaa !18
  %7 = icmp eq i32 %6, 0
  br i1 %7, label %8, label %.thread40

8:                                                ; preds = %3
  %9 = getelementptr inbounds nuw i8, ptr %2, i64 16
  %10 = load ptr, ptr %9, align 8, !tbaa !19
  %.not = icmp eq ptr %10, null
  br i1 %.not, label %.thread38, label %11

11:                                               ; preds = %8
  %12 = load ptr, ptr %2, align 8, !tbaa !3
  %13 = tail call ptr @ossl_namemap_stored(ptr noundef %12) #5
  %14 = load ptr, ptr %9, align 8, !tbaa !19
  %15 = tail call ptr @strchr(ptr noundef nonnull dereferenceable(1) %14, i32 noundef 58) #6
  %16 = icmp eq ptr %15, null
  br i1 %16, label %17, label %19

17:                                               ; preds = %11
  %18 = tail call i64 @strlen(ptr noundef nonnull dereferenceable(1) %14) #6
  br label %23

19:                                               ; preds = %11
  %20 = ptrtoint ptr %15 to i64
  %21 = ptrtoint ptr %14 to i64
  %22 = sub i64 %20, %21
  br label %23

23:                                               ; preds = %19, %17
  %24 = phi i64 [ %18, %17 ], [ %22, %19 ]
  %.not35 = icmp eq ptr %13, null
  br i1 %.not35, label %.thread38, label %25

25:                                               ; preds = %23
  %26 = tail call i32 @ossl_namemap_name2num_n(ptr noundef nonnull %13, ptr noundef nonnull %14, i64 noundef %24) #5
  %27 = icmp eq i32 %26, 0
  br i1 %27, label %.thread38, label %.thread40

.thread40:                                        ; preds = %3, %25
  %.02642 = phi i32 [ %26, %25 ], [ %6, %3 ]
  %28 = getelementptr inbounds nuw i8, ptr %2, i64 8
  %29 = load i32, ptr %28, align 8, !tbaa !17
  %30 = icmp ugt i32 %.02642, 8388607
  %31 = add i32 %29, -256
  %32 = icmp ult i32 %31, -255
  %or.cond.i.not = or i1 %30, %32
  %33 = shl nuw nsw i32 %.02642, 8
  %34 = add nuw nsw i32 %33, %29
  br i1 %or.cond.i.not, label %.thread38, label %35

35:                                               ; preds = %.thread40
  %36 = icmp eq ptr %0, null
  br i1 %36, label %37, label %41

37:                                               ; preds = %35
  %38 = load ptr, ptr %2, align 8, !tbaa !3
  %39 = tail call ptr @ossl_lib_ctx_get_data(ptr noundef %38, i32 noundef 0) #5
  %40 = icmp eq ptr %39, null
  br i1 %40, label %.thread38, label %41

41:                                               ; preds = %37, %35
  %.025 = phi ptr [ %39, %37 ], [ %0, %35 ]
  %42 = getelementptr inbounds nuw i8, ptr %2, i64 24
  %43 = load ptr, ptr %42, align 8, !tbaa !20
  %44 = call i32 @ossl_method_store_fetch(ptr noundef nonnull %.025, i32 noundef %34, ptr noundef %43, ptr noundef %1, ptr noundef nonnull %4) #5
  %.not36 = icmp eq i32 %44, 0
  %45 = load ptr, ptr %4, align 8
  %spec.select = select i1 %.not36, ptr null, ptr %45
  br label %.thread38

.thread38:                                        ; preds = %23, %8, %41, %37, %25, %.thread40
  %.1 = phi ptr [ null, %.thread40 ], [ null, %25 ], [ null, %37 ], [ %spec.select, %41 ], [ null, %8 ], [ null, %23 ]
  call void @llvm.lifetime.end.p0(i64 8, ptr nonnull %4) #5
  ret ptr %.1
}